; Function Attrs: mustprogress uwtable
define void @_ZN19OpenColorIO_v2_4dev12CPUProcessorC2Ev(ptr nocapture noundef nonnull writeonly align 8 dereferenceable(8) %this) unnamed_addr #3 align 2 {
entry:
  %call = tail call noalias noundef nonnull dereferenceable(144) ptr @_Znwm(i64 noundef 144) #19
  %m_inBitDepth.i = getelementptr inbounds i8, ptr %call, i64 56
  tail call void @llvm.memset.p0.i64(ptr noundef nonnull align 8 dereferenceable(56) %call, i8 0, i64 56, i1 false)
  store i32 8, ptr %m_inBitDepth.i, align 8
  %m_outBitDepth.i = getelementptr inbounds i8, ptr %call, i64 60
  store i32 8, ptr %m_outBitDepth.i, align 4
  %m_isNoOp.i = getelementptr inbounds i8, ptr %call, i64 64
  store i8 0, ptr %m_isNoOp.i, align 8
  %m_isIdentity.i = getelementptr inbounds i8, ptr %call, i64 65
  store i8 0, ptr %m_isIdentity.i, align 1
  %m_hasChannelCrosstalk.i = getelementptr inbounds i8, ptr %call, i64 66
  store i8 1, ptr %m_hasChannelCrosstalk.i, align 2
  %m_cacheID.i = getelementptr inbounds i8, ptr %call, i64 72
  tail call void @_ZNSt7__cxx1112basic_stringIcSt11char_traitsIcESaIcEEC1Ev(ptr noundef nonnull align 8 dereferenceable(32) %m_cacheID.i) #20
  %m_mutex.i = getelementptr inbounds i8, ptr %call, i64 104
  tail call void @llvm.memset.p0.i64(ptr noundef nonnull align 8 dereferenceable(40) %m_mutex.i, i8 0, i64 40, i1 false)
  store ptr %call, ptr %this, align 8
  ret void
}